target datalayout = "e-m:e-p270:32:32-p271:32:32-p272:64:64-i64:64-i128:128-f80:128-n8:16:32:64-S128"
target triple = "x86_64-pc-linux-gnu"

%struct.display_data = type { i64, i32, ptr, i8, i32, ptr, ptr, ptr, ptr, ptr, ptr, ptr, ptr }
%struct.process_node_t = type { i32, ptr }

@.str.43 = private unnamed_addr constant [16 x i8] c"Update Features\00", align 1
@.str.44 = private unnamed_addr constant [12 x i8] c"Update Gres\00", align 1

; Function Attrs: nounwind uwtable
define dso_local void @select_admin_nodes(ptr noundef %0, ptr noundef %1, ptr noundef %2, i32 noundef %3, ptr noundef %4) #0 {
  %6 = alloca ptr, align 8
  %7 = alloca ptr, align 8
  %8 = alloca ptr, align 8
  %9 = alloca i32, align 4
  %10 = alloca ptr, align 8
  %11 = alloca ptr, align 8
  %12 = alloca ptr, align 8
  %13 = alloca %struct.process_node_t, align 8
  store ptr %0, ptr %6, align 8
  store ptr %1, ptr %7, align 8
  store ptr %2, ptr %8, align 8
  store i32 %3, ptr %9, align 4
  store ptr %4, ptr %10, align 8
  %14 = load ptr, ptr %10, align 8
  %15 = icmp ne ptr %14, null
  br i1 %15, label %16, label %68

16:                                               ; preds = %5
  call void @llvm.lifetime.start.p0(i64 8, ptr %11) #7
  store ptr null, ptr %11, align 8
  call void @llvm.lifetime.start.p0(i64 8, ptr %12) #7
  store ptr null, ptr %12, align 8
  call void @llvm.lifetime.start.p0(i64 16, ptr %13) #7
  call void @llvm.memset.p0.i64(ptr align 8 %13, i8 0, i64 16, i1 false)
  %17 = load i32, ptr %9, align 4
  %18 = icmp eq i32 %17, -2
  br i1 %18, label %19, label %21

19:                                               ; preds = %16
  %20 = getelementptr inbounds nuw %struct.process_node_t, ptr %13, i32 0, i32 0
  store i32 21, ptr %20, align 8
  br label %24

21:                                               ; preds = %16
  %22 = load i32, ptr %9, align 4
  %23 = getelementptr inbounds nuw %struct.process_node_t, ptr %13, i32 0, i32 0
  store i32 %22, ptr %23, align 8
  br label %24

24:                                               ; preds = %21, %19
  %25 = load ptr, ptr %10, align 8
  %26 = call ptr @gtk_tree_view_get_selection(ptr noundef %25)
  call void @gtk_tree_selection_selected_foreach(ptr noundef %26, ptr noundef @_process_each_node, ptr noundef %13)
  %27 = getelementptr inbounds nuw %struct.process_node_t, ptr %13, i32 0, i32 1
  %28 = load ptr, ptr %27, align 8
  %29 = call ptr @hostlist_create(ptr noundef %28)
  store ptr %29, ptr %12, align 8
  %30 = load ptr, ptr %12, align 8
  call void @hostlist_uniq(ptr noundef %30)
  %31 = load ptr, ptr %12, align 8
  call void @hostlist_sort(ptr noundef %31)
  %32 = getelementptr inbounds nuw %struct.process_node_t, ptr %13, i32 0, i32 1
  call void @slurm_xfree(ptr noundef %32)
  %33 = load ptr, ptr %12, align 8
  %34 = call ptr @hostlist_ranged_string_xmalloc(ptr noundef %33)
  %35 = getelementptr inbounds nuw %struct.process_node_t, ptr %13, i32 0, i32 1
  store ptr %34, ptr %35, align 8
  %36 = load ptr, ptr %12, align 8
  call void @hostlist_destroy(ptr noundef %36)
  %37 = load ptr, ptr %8, align 8
  %38 = getelementptr inbounds nuw %struct.display_data, ptr %37, i32 0, i32 2
  %39 = load ptr, ptr %38, align 8
  %40 = call i32 @xstrcasecmp(ptr noundef @.str.43, ptr noundef %39)
  %41 = icmp ne i32 %40, 0
  br i1 %41, label %45, label %42

42:                                               ; preds = %24
  %43 = load ptr, ptr %6, align 8
  %44 = load ptr, ptr %7, align 8
  call void (ptr, ptr, ...) @gtk_tree_model_get(ptr noundef %43, ptr noundef %44, i32 noundef 3, ptr noundef %11, i32 noundef -1)
  br label %55

45:                                               ; preds = %24
  %46 = load ptr, ptr %8, align 8
  %47 = getelementptr inbounds nuw %struct.display_data, ptr %46, i32 0, i32 2
  %48 = load ptr, ptr %47, align 8
  %49 = call i32 @xstrcasecmp(ptr noundef @.str.44, ptr noundef %48)
  %50 = icmp ne i32 %49, 0
  br i1 %50, label %54, label %51

51:                                               ; preds = %45
  %52 = load ptr, ptr %6, align 8
  %53 = load ptr, ptr %7, align 8
  call void (ptr, ptr, ...) @gtk_tree_model_get(ptr noundef %52, ptr noundef %53, i32 noundef 18, ptr noundef %11, i32 noundef -1)
  br label %54

54:                                               ; preds = %51, %45
  br label %55

55:                                               ; preds = %54, %42
  %56 = getelementptr inbounds nuw %struct.process_node_t, ptr %13, i32 0, i32 1
  %57 = load ptr, ptr %56, align 8
  %58 = load ptr, ptr %11, align 8
  %59 = load ptr, ptr %8, align 8
  %60 = getelementptr inbounds nuw %struct.display_data, ptr %59, i32 0, i32 2
  %61 = load ptr, ptr %60, align 8
  call void @admin_node_name(ptr noundef %57, ptr noundef %58, ptr noundef %61)
  %62 = getelementptr inbounds nuw %struct.process_node_t, ptr %13, i32 0, i32 1
  call void @slurm_xfree(ptr noundef %62)
  %63 = load ptr, ptr %11, align 8
  %64 = icmp ne ptr %63, null
  br i1 %64, label %65, label %67

65:                                               ; preds = %55
  %66 = load ptr, ptr %11, align 8
  call void @g_free(ptr noundef %66)
  br label %67

67:                                               ; preds = %65, %55
  call void @llvm.lifetime.end.p0(i64 16, ptr %13) #7
  call void @llvm.lifetime.end.p0(i64 8, ptr %12) #7
  call void @llvm.lifetime.end.p0(i64 8, ptr %11) #7
  br label %68

68:                                               ; preds = %67, %5
  ret void
}