; Function Attrs: nounwind uwtable
define dso_local void @select_admin_nodes(ptr noundef %0, ptr noundef %1, ptr noundef readonly captures(none) %2, i32 noundef %3, ptr noundef %4) local_unnamed_addr #0 {
  %6 = alloca ptr, align 8
  %7 = alloca %struct.process_node_t, align 8
  %.not = icmp eq ptr %4, null
  br i1 %.not, label %28, label %8

8:                                                ; preds = %5
  call void @llvm.lifetime.start.p0(i64 8, ptr nonnull %6) #11
  store ptr null, ptr %6, align 8
  call void @llvm.lifetime.start.p0(i64 16, ptr nonnull %7) #11
  call void @llvm.memset.p0.i64(ptr noundef nonnull align 8 dereferenceable(16) %7, i8 0, i64 16, i1 false)
  %9 = icmp eq i32 %3, -2
  %. = select i1 %9, i32 21, i32 %3
  store i32 %., ptr %7, align 8
  %10 = tail call ptr @gtk_tree_view_get_selection(ptr noundef nonnull %4) #11
  call void @gtk_tree_selection_selected_foreach(ptr noundef %10, ptr noundef nonnull @_process_each_node, ptr noundef nonnull %7) #11
  %11 = getelementptr inbounds nuw i8, ptr %7, i64 8
  %12 = load ptr, ptr %11, align 8
  %13 = call ptr @hostlist_create(ptr noundef %12) #11
  call void @hostlist_uniq(ptr noundef %13) #11
  call void @hostlist_sort(ptr noundef %13) #11
  call void @slurm_xfree(ptr noundef nonnull %11) #11
  %14 = call ptr @hostlist_ranged_string_xmalloc(ptr noundef %13) #11
  store ptr %14, ptr %11, align 8
  call void @hostlist_destroy(ptr noundef %13) #11
  %15 = getelementptr inbounds nuw i8, ptr %2, i64 16
  %16 = load ptr, ptr %15, align 8
  %17 = call i32 @xstrcasecmp(ptr noundef nonnull @.str.43, ptr noundef %16) #11
  %.not16 = icmp eq i32 %17, 0
  br i1 %.not16, label %.sink.split, label %18

18:                                               ; preds = %8
  %19 = load ptr, ptr %15, align 8
  %20 = call i32 @xstrcasecmp(ptr noundef nonnull @.str.44, ptr noundef %19) #11
  %.not17 = icmp eq i32 %20, 0
  br i1 %.not17, label %.sink.split, label %21

.sink.split:                                      ; preds = %18, %8
  %.sink = phi i32 [ 3, %8 ], [ 18, %18 ]
  call void (ptr, ptr, ...) @gtk_tree_model_get(ptr noundef %0, ptr noundef %1, i32 noundef %.sink, ptr noundef nonnull %6, i32 noundef -1) #11
  br label %21

21:                                               ; preds = %.sink.split, %18
  %22 = load ptr, ptr %11, align 8
  %23 = load ptr, ptr %6, align 8
  %24 = load ptr, ptr %15, align 8
  call void @admin_node_name(ptr noundef %22, ptr noundef %23, ptr noundef %24)
  call void @slurm_xfree(ptr noundef nonnull %11) #11
  %25 = load ptr, ptr %6, align 8
  %.not18 = icmp eq ptr %25, null
  br i1 %.not18, label %27, label %26

26:                                               ; preds = %21
  call void @g_free(ptr noundef nonnull %25) #11
  br label %27

27:                                               ; preds = %26, %21
  call void @llvm.lifetime.end.p0(i64 16, ptr nonnull %7) #11
  call void @llvm.lifetime.end.p0(i64 8, ptr nonnull %6) #11
  br label %28

28:                                               ; preds = %27, %5
  ret void
}